; Function Attrs: mustprogress uwtable
define void @_ZN6google8protobuf5Field12InternalSwapEPS1_(ptr noundef nonnull align 8 dereferenceable(96) %this, ptr noalias noundef %other) local_unnamed_addr #3 align 2 {
entry:
  %_internal_metadata_.i = getelementptr inbounds i8, ptr %this, i64 8
  %0 = load i64, ptr %_internal_metadata_.i, align 8
  %_internal_metadata_3 = getelementptr inbounds i8, ptr %other, i64 8
  %1 = load i64, ptr %_internal_metadata_3, align 8
  store i64 %1, ptr %_internal_metadata_.i, align 8
  store i64 %0, ptr %_internal_metadata_3, align 8
  %2 = getelementptr inbounds i8, ptr %this, i64 16
  %3 = getelementptr inbounds i8, ptr %other, i64 16
  tail call void @_ZN6google8protobuf8internal7memswapILm16EEEvPcS3_(ptr noundef nonnull %2, ptr noundef nonnull %3)
  %name_ = getelementptr inbounds i8, ptr %this, i64 40
  %name_5 = getelementptr inbounds i8, ptr %other, i64 40
  %4 = load <2 x ptr>, ptr %name_5, align 8
  %5 = load <2 x i64>, ptr %name_, align 8
  store <2 x i64> %5, ptr %name_5, align 8
  store <2 x ptr> %4, ptr %name_, align 8
  %json_name_ = getelementptr inbounds i8, ptr %this, i64 56
  %json_name_7 = getelementptr inbounds i8, ptr %other, i64 56
  %6 = load <2 x ptr>, ptr %json_name_7, align 8
  %7 = load <2 x i64>, ptr %json_name_, align 8
  store <2 x i64> %7, ptr %json_name_7, align 8
  store <2 x ptr> %6, ptr %json_name_, align 8
  %kind_ = getelementptr inbounds i8, ptr %this, i64 72
  %kind_9 = getelementptr i8, ptr %other, i64 72
  tail call void @llvm.experimental.noalias.scope.decl(metadata !21)
  tail call void @llvm.experimental.noalias.scope.decl(metadata !24)
  br label %for.body.i.i

for.body.i.i:                                     ; preds = %for.body.i.i, %entry
  %__first2.addr.07.i.i = phi ptr [ %incdec.ptr1.i.i, %for.body.i.i ], [ %kind_9, %entry ]
  %__first1.addr.06.i.idx.i = phi i64 [ %__first1.addr.06.i.add.i, %for.body.i.i ], [ 0, %entry ]
  %__first1.addr.06.i.ptr.i = getelementptr inbounds i8, ptr %kind_, i64 %__first1.addr.06.i.idx.i
  %8 = load i8, ptr %__first1.addr.06.i.ptr.i, align 1, !alias.scope !21, !noalias !24
  %9 = load i8, ptr %__first2.addr.07.i.i, align 1, !alias.scope !24, !noalias !21
  store i8 %9, ptr %__first1.addr.06.i.ptr.i, align 1, !alias.scope !21, !noalias !24
  store i8 %8, ptr %__first2.addr.07.i.i, align 1, !alias.scope !24, !noalias !21
  %__first1.addr.06.i.add.i = add nuw nsw i64 %__first1.addr.06.i.idx.i, 1
  %incdec.ptr1.i.i = getelementptr inbounds i8, ptr %__first2.addr.07.i.i, i64 1
  %cmp.not.i.i = icmp eq i64 %__first1.addr.06.i.add.i, 17
  br i1 %cmp.not.i.i, label %_ZN6google8protobuf8internal7memswapILm17EEEvPcS3_.exit, label %for.body.i.i, !llvm.loop !19

_ZN6google8protobuf8internal7memswapILm17EEEvPcS3_.exit: ; preds = %for.body.i.i
  ret void
}